target datalayout = "e-m:e-p270:32:32-p271:32:32-p272:64:64-i64:64-i128:128-f80:128-n8:16:32:64-S128"
target triple = "x86_64-unknown-linux-gnu"

%"class.net::QuicCompressedCertsCache" = type { %"class.base::MRUCache" }
%"class.base::MRUCache" = type { %"class.base::MRUCacheBase" }
%"class.base::MRUCacheBase" = type { ptr, %"class.std::__cxx11::list", %"class.std::map", i64 }
%"class.std::__cxx11::list" = type { %"class.std::__cxx11::_List_base" }
%"class.std::__cxx11::_List_base" = type { %"struct.std::__cxx11::_List_base<std::pair<unsigned long, net::QuicCompressedCertsCache::CachedCerts>, std::allocator<std::pair<unsigned long, net::QuicCompressedCertsCache::CachedCerts>>>::_List_impl" }
%"struct.std::__cxx11::_List_base<std::pair<unsigned long, net::QuicCompressedCertsCache::CachedCerts>, std::allocator<std::pair<unsigned long, net::QuicCompressedCertsCache::CachedCerts>>>::_List_impl" = type { %"struct.std::__detail::_List_node_header" }
%"struct.std::__detail::_List_node_header" = type { %"struct.std::__detail::_List_node_base", i64 }
%"struct.std::__detail::_List_node_base" = type { ptr, ptr }
%"class.std::map" = type { %"class.std::_Rb_tree" }
%"class.std::_Rb_tree" = type { %"struct.std::_Rb_tree<unsigned long, std::pair<const unsigned long, std::_List_iterator<std::pair<unsigned long, net::QuicCompressedCertsCache::CachedCerts>>>, std::_Select1st<std::pair<const unsigned long, std::_List_iterator<std::pair<unsigned long, net::QuicCompressedCertsCache::CachedCerts>>>>, std::less<unsigned long>>::_Rb_tree_impl" }
%"struct.std::_Rb_tree<unsigned long, std::pair<const unsigned long, std::_List_iterator<std::pair<unsigned long, net::QuicCompressedCertsCache::CachedCerts>>>, std::_Select1st<std::pair<const unsigned long, std::_List_iterator<std::pair<unsigned long, net::QuicCompressedCertsCache::CachedCerts>>>>, std::less<unsigned long>>::_Rb_tree_impl" = type { %"struct.std::_Rb_tree_key_compare", %"struct.std::_Rb_tree_header" }
%"struct.std::_Rb_tree_key_compare" = type { %"struct.std::less" }
%"struct.std::less" = type { i8 }
%"struct.std::_Rb_tree_header" = type { %"struct.std::_Rb_tree_node_base", i64 }
%"struct.std::_Rb_tree_node_base" = type { i32, ptr, ptr, ptr }

; Function Attrs: noreturn nounwind uwtable
define linkonce_odr hidden void @__clang_call_terminate(ptr noundef %0) #4 comdat {
  %2 = call ptr @__cxa_begin_catch(ptr %0) #11
  call void @_ZSt9terminatev() #12
  unreachable
}

; Function Attrs: mustprogress nounwind uwtable
define linkonce_odr dso_local void @_ZNSt15_Rb_tree_header8_M_resetEv(ptr noundef nonnull align 8 dereferenceable(40) %this) #1 comdat align 2 {
entry:
  %this.addr = alloca ptr, align 8
  store ptr %this, ptr %this.addr, align 8
  %this1 = load ptr, ptr %this.addr, align 8
  %_M_header = getelementptr inbounds %"struct.std::_Rb_tree_header", ptr %this1, i32 0, i32 0
  %_M_parent = getelementptr inbounds %"struct.std::_Rb_tree_node_base", ptr %_M_header, i32 0, i32 1
  store ptr null, ptr %_M_parent, align 8
  %_M_header2 = getelementptr inbounds %"struct.std::_Rb_tree_header", ptr %this1, i32 0, i32 0
  %_M_header3 = getelementptr inbounds %"struct.std::_Rb_tree_header", ptr %this1, i32 0, i32 0
  %_M_left = getelementptr inbounds %"struct.std::_Rb_tree_node_base", ptr %_M_header3, i32 0, i32 2
  store ptr %_M_header2, ptr %_M_left, align 8
  %_M_header4 = getelementptr inbounds %"struct.std::_Rb_tree_header", ptr %this1, i32 0, i32 0
  %_M_header5 = getelementptr inbounds %"struct.std::_Rb_tree_header", ptr %this1, i32 0, i32 0
  %_M_right = getelementptr inbounds %"struct.std::_Rb_tree_node_base", ptr %_M_header5, i32 0, i32 3
  store ptr %_M_header4, ptr %_M_right, align 8
  %_M_node_count = getelementptr inbounds %"struct.std::_Rb_tree_header", ptr %this1, i32 0, i32 1
  store i64 0, ptr %_M_node_count, align 8
  ret void
}

; Function Attrs: mustprogress nounwind uwtable
define linkonce_odr dso_local void @_ZNSt15__new_allocatorISt13_Rb_tree_nodeISt4pairIKmSt14_List_iteratorIS1_ImN3net24QuicCompressedCertsCache11CachedCertsEEEEEEC2Ev(ptr noundef nonnull align 1 dereferenceable(1) %this) unnamed_addr #1 comdat align 2 {
entry:
  %this.addr = alloca ptr, align 8
  store ptr %this, ptr %this.addr, align 8
  ret void
}

; Function Attrs: mustprogress nounwind uwtable
define linkonce_odr dso_local void @_ZNSt8__detail17_List_node_header7_M_initEv(ptr noundef nonnull align 8 dereferenceable(24) %this) #1 comdat align 2 {
entry:
  %this.addr = alloca ptr, align 8
  store ptr %this, ptr %this.addr, align 8
  %this1 = load ptr, ptr %this.addr, align 8
  %_M_prev = getelementptr inbounds %"struct.std::__detail::_List_node_base", ptr %this1, i32 0, i32 1
  store ptr %this1, ptr %_M_prev, align 8
  %_M_next = getelementptr inbounds %"struct.std::__detail::_List_node_base", ptr %this1, i32 0, i32 0
  store ptr %this1, ptr %_M_next, align 8
  %_M_size = getelementptr inbounds %"struct.std::__detail::_List_node_header", ptr %this1, i32 0, i32 1
  store i64 0, ptr %_M_size, align 8
  ret void
}

; Function Attrs: mustprogress nounwind uwtable
define linkonce_odr dso_local void @_ZNSt15__new_allocatorISt10_List_nodeISt4pairImN3net24QuicCompressedCertsCache11CachedCertsEEEEC2Ev(ptr noundef nonnull align 1 dereferenceable(1) %this) unnamed_addr #1 comdat align 2 {
entry:
  %this.addr = alloca ptr, align 8
  store ptr %this, ptr %this.addr, align 8
  ret void
}

; Function Attrs: mustprogress nounwind uwtable
define linkonce_odr dso_local void @_ZNSt15_Rb_tree_headerC2Ev(ptr noundef nonnull align 8 dereferenceable(40) %this) unnamed_addr #1 comdat align 2 personality ptr @__gxx_personality_v0 {
entry:
  %this.addr = alloca ptr, align 8
  store ptr %this, ptr %this.addr, align 8
  %this1 = load ptr, ptr %this.addr, align 8
  %_M_header2 = getelementptr inbounds %"struct.std::_Rb_tree_header", ptr %this1, i32 0, i32 0
  %_M_color = getelementptr inbounds %"struct.std::_Rb_tree_node_base", ptr %_M_header2, i32 0, i32 0
  store i32 0, ptr %_M_color, align 8
  invoke void @_ZNSt15_Rb_tree_header8_M_resetEv(ptr noundef nonnull align 8 dereferenceable(40) %this1)
          to label %invoke.cont unwind label %terminate.lpad

invoke.cont:                                      ; preds = %entry
  ret void

terminate.lpad:                                   ; preds = %entry
  %0 = landingpad { ptr, i32 }
          catch ptr null
  %1 = extractvalue { ptr, i32 } %0, 0
  call void @__clang_call_terminate(ptr %1) #12
  unreachable
}

; Function Attrs: mustprogress nounwind uwtable
define linkonce_odr dso_local void @_ZNSt20_Rb_tree_key_compareISt4lessImEEC2Ev(ptr noundef nonnull align 1 dereferenceable(1) %this) unnamed_addr #1 comdat align 2 {
entry:
  %this.addr = alloca ptr, align 8
  store ptr %this, ptr %this.addr, align 8
  ret void
}

; Function Attrs: mustprogress nounwind uwtable
define linkonce_odr dso_local void @_ZNSaISt13_Rb_tree_nodeISt4pairIKmSt14_List_iteratorIS0_ImN3net24QuicCompressedCertsCache11CachedCertsEEEEEEC2Ev(ptr noundef nonnull align 1 dereferenceable(1) %this) unnamed_addr #1 comdat align 2 {
entry:
  %this.addr = alloca ptr, align 8
  store ptr %this, ptr %this.addr, align 8
  %this1 = load ptr, ptr %this.addr, align 8
  call void @_ZNSt15__new_allocatorISt13_Rb_tree_nodeISt4pairIKmSt14_List_iteratorIS1_ImN3net24QuicCompressedCertsCache11CachedCertsEEEEEEC2Ev(ptr noundef nonnull align 1 dereferenceable(1) %this1) #11
  ret void
}

; Function Attrs: mustprogress nounwind uwtable
define linkonce_odr dso_local void @_ZNSt8__detail17_List_node_headerC2Ev(ptr noundef nonnull align 8 dereferenceable(24) %this) unnamed_addr #1 comdat align 2 {
entry:
  %this.addr = alloca ptr, align 8
  store ptr %this, ptr %this.addr, align 8
  %this1 = load ptr, ptr %this.addr, align 8
  call void @_ZNSt8__detail17_List_node_header7_M_initEv(ptr noundef nonnull align 8 dereferenceable(24) %this1) #11
  ret void
}

; Function Attrs: mustprogress nounwind uwtable
define linkonce_odr dso_local void @_ZNSaISt10_List_nodeISt4pairImN3net24QuicCompressedCertsCache11CachedCertsEEEEC2Ev(ptr noundef nonnull align 1 dereferenceable(1) %this) unnamed_addr #1 comdat align 2 {
entry:
  %this.addr = alloca ptr, align 8
  store ptr %this, ptr %this.addr, align 8
  %this1 = load ptr, ptr %this.addr, align 8
  call void @_ZNSt15__new_allocatorISt10_List_nodeISt4pairImN3net24QuicCompressedCertsCache11CachedCertsEEEEC2Ev(ptr noundef nonnull align 1 dereferenceable(1) %this1) #11
  ret void
}

; Function Attrs: mustprogress nounwind uwtable
define linkonce_odr dso_local void @_ZNSt8_Rb_treeImSt4pairIKmSt14_List_iteratorIS0_ImN3net24QuicCompressedCertsCache11CachedCertsEEEESt10_Select1stIS8_ESt4lessImESaIS8_EE13_Rb_tree_implISC_Lb1EEC2Ev(ptr noundef nonnull align 8 dereferenceable(48) %this) unnamed_addr #1 comdat align 2 {
entry:
  %this.addr = alloca ptr, align 8
  store ptr %this, ptr %this.addr, align 8
  %this1 = load ptr, ptr %this.addr, align 8
  call void @_ZNSaISt13_Rb_tree_nodeISt4pairIKmSt14_List_iteratorIS0_ImN3net24QuicCompressedCertsCache11CachedCertsEEEEEEC2Ev(ptr noundef nonnull align 1 dereferenceable(1) %this1) #11
  call void @_ZNSt20_Rb_tree_key_compareISt4lessImEEC2Ev(ptr noundef nonnull align 1 dereferenceable(1) %this1) #11
  %0 = getelementptr inbounds i8, ptr %this1, i64 8
  call void @_ZNSt15_Rb_tree_headerC2Ev(ptr noundef nonnull align 8 dereferenceable(40) %0) #11
  ret void
}

; Function Attrs: mustprogress nounwind uwtable
define linkonce_odr dso_local void @_ZNSt7__cxx1110_List_baseISt4pairImN3net24QuicCompressedCertsCache11CachedCertsEESaIS5_EE10_List_implC2Ev(ptr noundef nonnull align 8 dereferenceable(24) %this) unnamed_addr #1 comdat align 2 {
entry:
  %this.addr = alloca ptr, align 8
  store ptr %this, ptr %this.addr, align 8
  %this1 = load ptr, ptr %this.addr, align 8
  call void @_ZNSaISt10_List_nodeISt4pairImN3net24QuicCompressedCertsCache11CachedCertsEEEEC2Ev(ptr noundef nonnull align 1 dereferenceable(1) %this1) #11
  %_M_node = getelementptr inbounds %"struct.std::__cxx11::_List_base<std::pair<unsigned long, net::QuicCompressedCertsCache::CachedCerts>, std::allocator<std::pair<unsigned long, net::QuicCompressedCertsCache::CachedCerts>>>::_List_impl", ptr %this1, i32 0, i32 0
  call void @_ZNSt8__detail17_List_node_headerC2Ev(ptr noundef nonnull align 8 dereferenceable(24) %_M_node) #11
  ret void
}

; Function Attrs: mustprogress nounwind uwtable
define linkonce_odr dso_local void @_ZNSt8_Rb_treeImSt4pairIKmSt14_List_iteratorIS0_ImN3net24QuicCompressedCertsCache11CachedCertsEEEESt10_Select1stIS8_ESt4lessImESaIS8_EEC2Ev(ptr noundef nonnull align 8 dereferenceable(48) %this) unnamed_addr #1 comdat align 2 {
entry:
  %this.addr = alloca ptr, align 8
  store ptr %this, ptr %this.addr, align 8
  %this1 = load ptr, ptr %this.addr, align 8
  %_M_impl = getelementptr inbounds %"class.std::_Rb_tree", ptr %this1, i32 0, i32 0
  call void @_ZNSt8_Rb_treeImSt4pairIKmSt14_List_iteratorIS0_ImN3net24QuicCompressedCertsCache11CachedCertsEEEESt10_Select1stIS8_ESt4lessImESaIS8_EE13_Rb_tree_implISC_Lb1EEC2Ev(ptr noundef nonnull align 8 dereferenceable(48) %_M_impl) #11
  ret void
}

; Function Attrs: mustprogress nounwind uwtable
define linkonce_odr dso_local void @_ZNSt7__cxx1110_List_baseISt4pairImN3net24QuicCompressedCertsCache11CachedCertsEESaIS5_EEC2Ev(ptr noundef nonnull align 8 dereferenceable(24) %this) unnamed_addr #1 comdat align 2 {
entry:
  %this.addr = alloca ptr, align 8
  store ptr %this, ptr %this.addr, align 8
  %this1 = load ptr, ptr %this.addr, align 8
  %_M_impl = getelementptr inbounds %"class.std::__cxx11::_List_base", ptr %this1, i32 0, i32 0
  call void @_ZNSt7__cxx1110_List_baseISt4pairImN3net24QuicCompressedCertsCache11CachedCertsEESaIS5_EE10_List_implC2Ev(ptr noundef nonnull align 8 dereferenceable(24) %_M_impl) #11
  ret void
}

; Function Attrs: mustprogress nounwind uwtable
define linkonce_odr dso_local void @_ZNSt3mapImSt14_List_iteratorISt4pairImN3net24QuicCompressedCertsCache11CachedCertsEEESt4lessImESaIS1_IKmS6_EEEC2Ev(ptr noundef nonnull align 8 dereferenceable(48) %this) unnamed_addr #1 comdat align 2 {
entry:
  %this.addr = alloca ptr, align 8
  store ptr %this, ptr %this.addr, align 8
  %this1 = load ptr, ptr %this.addr, align 8
  %_M_t = getelementptr inbounds %"class.std::map", ptr %this1, i32 0, i32 0
  call void @_ZNSt8_Rb_treeImSt4pairIKmSt14_List_iteratorIS0_ImN3net24QuicCompressedCertsCache11CachedCertsEEEESt10_Select1stIS8_ESt4lessImESaIS8_EEC2Ev(ptr noundef nonnull align 8 dereferenceable(48) %_M_t) #11
  ret void
}

; Function Attrs: mustprogress nounwind uwtable
define linkonce_odr dso_local void @_ZNSt7__cxx114listISt4pairImN3net24QuicCompressedCertsCache11CachedCertsEESaIS5_EEC2Ev(ptr noundef nonnull align 8 dereferenceable(24) %this) unnamed_addr #1 comdat align 2 {
entry:
  %this.addr = alloca ptr, align 8
  store ptr %this, ptr %this.addr, align 8
  %this1 = load ptr, ptr %this.addr, align 8
  call void @_ZNSt7__cxx1110_List_baseISt4pairImN3net24QuicCompressedCertsCache11CachedCertsEESaIS5_EEC2Ev(ptr noundef nonnull align 8 dereferenceable(24) %this1) #11
  ret void
}

; Function Attrs: mustprogress nounwind uwtable
define linkonce_odr dso_local void @_ZN4base12MRUCacheBaseImN3net24QuicCompressedCertsCache11CachedCertsESt4lessImENS_19MRUCacheStandardMapEEC2Em(ptr noundef nonnull align 8 dereferenceable(88) %this, i64 noundef %max_size) unnamed_addr #1 comdat align 2 {
entry:
  %this.addr = alloca ptr, align 8
  %max_size.addr = alloca i64, align 8
  store ptr %this, ptr %this.addr, align 8
  store i64 %max_size, ptr %max_size.addr, align 8
  %this1 = load ptr, ptr %this.addr, align 8
  store ptr getelementptr inbounds ({ [4 x ptr] }, ptr @_ZTVN4base12MRUCacheBaseImN3net24QuicCompressedCertsCache11CachedCertsESt4lessImENS_19MRUCacheStandardMapEEE, i32 0, i32 0, i32 2), ptr %this1, align 8
  %ordering_ = getelementptr inbounds %"class.base::MRUCacheBase", ptr %this1, i32 0, i32 1
  call void @_ZNSt7__cxx114listISt4pairImN3net24QuicCompressedCertsCache11CachedCertsEESaIS5_EEC2Ev(ptr noundef nonnull align 8 dereferenceable(24) %ordering_) #11
  %index_ = getelementptr inbounds %"class.base::MRUCacheBase", ptr %this1, i32 0, i32 2
  call void @_ZNSt3mapImSt14_List_iteratorISt4pairImN3net24QuicCompressedCertsCache11CachedCertsEEESt4lessImESaIS1_IKmS6_EEEC2Ev(ptr noundef nonnull align 8 dereferenceable(48) %index_) #11
  %max_size_ = getelementptr inbounds %"class.base::MRUCacheBase", ptr %this1, i32 0, i32 3
  %0 = load i64, ptr %max_size.addr, align 8
  store i64 %0, ptr %max_size_, align 8
  ret void
}

; Function Attrs: mustprogress uwtable
define linkonce_odr dso_local void @_ZN4base8MRUCacheImN3net24QuicCompressedCertsCache11CachedCertsEEC2Em(ptr noundef nonnull align 8 dereferenceable(88) %this, i64 noundef %max_size) unnamed_addr #0 comdat align 2 {
entry:
  %this.addr = alloca ptr, align 8
  %max_size.addr = alloca i64, align 8
  store ptr %this, ptr %this.addr, align 8
  store i64 %max_size, ptr %max_size.addr, align 8
  %this1 = load ptr, ptr %this.addr, align 8
  %0 = load i64, ptr %max_size.addr, align 8
  call void @_ZN4base12MRUCacheBaseImN3net24QuicCompressedCertsCache11CachedCertsESt4lessImENS_19MRUCacheStandardMapEEC2Em(ptr noundef nonnull align 8 dereferenceable(88) %this1, i64 noundef %0)
  store ptr getelementptr inbounds ({ [4 x ptr] }, ptr @_ZTVN4base8MRUCacheImN3net24QuicCompressedCertsCache11CachedCertsEEE, i32 0, i32 0, i32 2), ptr %this1, align 8
  ret void
}

; Function Attrs: mustprogress uwtable
define dso_local void @_ZN3net24QuicCompressedCertsCacheC2El(ptr noundef nonnull align 8 dereferenceable(88) %this, i64 noundef %max_num_certs) unnamed_addr #0 align 2 {
entry:
  %this.addr = alloca ptr, align 8
  %max_num_certs.addr = alloca i64, align 8
  store ptr %this, ptr %this.addr, align 8
  store i64 %max_num_certs, ptr %max_num_certs.addr, align 8
  %this1 = load ptr, ptr %this.addr, align 8
  %certs_cache_ = getelementptr inbounds %"class.net::QuicCompressedCertsCache", ptr %this1, i32 0, i32 0
  %0 = load i64, ptr %max_num_certs.addr, align 8
  call void @_ZN4base8MRUCacheImN3net24QuicCompressedCertsCache11CachedCertsEEC2Em(ptr noundef nonnull align 8 dereferenceable(88) %certs_cache_, i64 noundef %0)
  ret void
}