; Function Attrs: mustprogress nofree norecurse nosync nounwind willreturn memory(argmem: write) uwtable
define dso_local void @_ZN3net24QuicCompressedCertsCacheC2El(ptr noundef nonnull align 8 dereferenceable(88) %this, i64 noundef %max_num_certs) unnamed_addr #0 align 2 personality ptr @__gxx_personality_v0 {
entry:
  %ordering_.i.i = getelementptr inbounds i8, ptr %this, i64 8
  %_M_prev.i.i.i.i.i.i.i = getelementptr inbounds i8, ptr %this, i64 16
  store ptr %ordering_.i.i, ptr %_M_prev.i.i.i.i.i.i.i, align 8
  store ptr %ordering_.i.i, ptr %ordering_.i.i, align 8
  %_M_size.i.i.i.i.i.i.i = getelementptr inbounds i8, ptr %this, i64 24
  store i64 0, ptr %_M_size.i.i.i.i.i.i.i, align 8
  %0 = getelementptr inbounds i8, ptr %this, i64 40
  store i32 0, ptr %0, align 8
  %_M_parent.i.i.i.i.i.i.i = getelementptr inbounds i8, ptr %this, i64 48
  store ptr null, ptr %_M_parent.i.i.i.i.i.i.i, align 8
  %_M_left.i.i.i.i.i.i.i = getelementptr inbounds i8, ptr %this, i64 56
  store ptr %0, ptr %_M_left.i.i.i.i.i.i.i, align 8
  %_M_right.i.i.i.i.i.i.i = getelementptr inbounds i8, ptr %this, i64 64
  store ptr %0, ptr %_M_right.i.i.i.i.i.i.i, align 8
  %_M_node_count.i.i.i.i.i.i.i = getelementptr inbounds i8, ptr %this, i64 72
  store i64 0, ptr %_M_node_count.i.i.i.i.i.i.i, align 8
  %max_size_.i.i = getelementptr inbounds i8, ptr %this, i64 80
  store i64 %max_num_certs, ptr %max_size_.i.i, align 8
  store ptr getelementptr inbounds ({ [4 x ptr] }, ptr @_ZTVN4base8MRUCacheImN3net24QuicCompressedCertsCache11CachedCertsEEE, i64 0, i32 0, i64 2), ptr %this, align 8
  ret void
}